target datalayout = "e-m:e-p270:32:32-p271:32:32-p272:64:64-i64:64-i128:128-f80:128-n8:16:32:64-S128"
target triple = "x86_64-pc-linux-gnu"

%"class.duckdb_apache::thrift::TBase" = type { ptr }
%"class.duckdb_parquet::BloomFilterAlgorithm" = type <{ %"class.duckdb_apache::thrift::TBase", %"class.duckdb_parquet::SplitBlockAlgorithm", %"struct.duckdb_parquet::_BloomFilterAlgorithm__isset", [7 x i8] }>
%"class.duckdb_parquet::SplitBlockAlgorithm" = type { %"class.duckdb_apache::thrift::TBase" }
%"struct.duckdb_parquet::_BloomFilterAlgorithm__isset" = type { i8 }

; Function Attrs: inlinehint mustprogress nounwind uwtable
define linkonce_odr void @_ZSt4swapIN14duckdb_parquet28_BloomFilterAlgorithm__issetEENSt9enable_ifIXsr6__and_ISt6__not_ISt15__is_tuple_likeIT_EESt21is_move_constructibleIS5_ESt18is_move_assignableIS5_EEE5valueEvE4typeERS5_SE_(ptr noundef nonnull align 1 dereferenceable(1) %0, ptr noundef nonnull align 1 dereferenceable(1) %1) #7 comdat {
  %3 = alloca ptr, align 8
  %4 = alloca ptr, align 8
  %5 = alloca %"struct.duckdb_parquet::_BloomFilterAlgorithm__isset", align 1
  store ptr %0, ptr %3, align 8, !tbaa !285
  store ptr %1, ptr %4, align 8, !tbaa !285
  call void @llvm.lifetime.start.p0(i64 1, ptr %5) #3
  %6 = load ptr, ptr %3, align 8, !tbaa !285
  call void @llvm.memcpy.p0.p0.i64(ptr align 1 %5, ptr align 1 %6, i64 1, i1 false), !tbaa.struct !111
  %7 = load ptr, ptr %4, align 8, !tbaa !285
  %8 = load ptr, ptr %3, align 8, !tbaa !285
  call void @llvm.memcpy.p0.p0.i64(ptr align 1 %8, ptr align 1 %7, i64 1, i1 false), !tbaa.struct !111
  %9 = load ptr, ptr %4, align 8, !tbaa !285
  call void @llvm.memcpy.p0.p0.i64(ptr align 1 %9, ptr align 1 %5, i64 1, i1 false), !tbaa.struct !111
  call void @llvm.lifetime.end.p0(i64 1, ptr %5) #3
  ret void
}

; Function Attrs: mustprogress nounwind uwtable
define void @_ZN14duckdb_parquet4swapERNS_19SplitBlockAlgorithmES1_(ptr noundef nonnull align 8 dereferenceable(8) %0, ptr noundef nonnull align 8 dereferenceable(8) %1) #1 {
  %3 = alloca ptr, align 8
  %4 = alloca ptr, align 8
  store ptr %0, ptr %3, align 8, !tbaa !280
  store ptr %1, ptr %4, align 8, !tbaa !280
  ret void
}

; Function Attrs: mustprogress nounwind uwtable
define void @_ZN14duckdb_parquet4swapERNS_20BloomFilterAlgorithmES1_(ptr noundef nonnull align 8 dereferenceable(17) %0, ptr noundef nonnull align 8 dereferenceable(17) %1) #1 {
  %3 = alloca ptr, align 8
  %4 = alloca ptr, align 8
  store ptr %0, ptr %3, align 8, !tbaa !283
  store ptr %1, ptr %4, align 8, !tbaa !283
  %5 = load ptr, ptr %3, align 8, !tbaa !283
  %6 = getelementptr inbounds nuw %"class.duckdb_parquet::BloomFilterAlgorithm", ptr %5, i32 0, i32 1
  %7 = load ptr, ptr %4, align 8, !tbaa !283
  %8 = getelementptr inbounds nuw %"class.duckdb_parquet::BloomFilterAlgorithm", ptr %7, i32 0, i32 1
  call void @_ZN14duckdb_parquet4swapERNS_19SplitBlockAlgorithmES1_(ptr noundef nonnull align 8 dereferenceable(8) %6, ptr noundef nonnull align 8 dereferenceable(8) %8)
  %9 = load ptr, ptr %3, align 8, !tbaa !283
  %10 = getelementptr inbounds nuw %"class.duckdb_parquet::BloomFilterAlgorithm", ptr %9, i32 0, i32 2
  %11 = load ptr, ptr %4, align 8, !tbaa !283
  %12 = getelementptr inbounds nuw %"class.duckdb_parquet::BloomFilterAlgorithm", ptr %11, i32 0, i32 2
  call void @_ZSt4swapIN14duckdb_parquet28_BloomFilterAlgorithm__issetEENSt9enable_ifIXsr6__and_ISt6__not_ISt15__is_tuple_likeIT_EESt21is_move_constructibleIS5_ESt18is_move_assignableIS5_EEE5valueEvE4typeERS5_SE_(ptr noundef nonnull align 1 dereferenceable(1) %10, ptr noundef nonnull align 1 dereferenceable(1) %12) #3
  ret void
}